target datalayout = "e-m:e-p270:32:32-p271:32:32-p272:64:64-i64:64-i128:128-f80:128-n8:16:32:64-S128"
target triple = "x86_64-pc-linux-gnu"

%"class.std::__cxx11::basic_string" = type { %"struct.std::__cxx11::basic_string<char>::_Alloc_hider", i64, %union.anon }
%"struct.std::__cxx11::basic_string<char>::_Alloc_hider" = type { ptr }
%union.anon = type { i64, [8 x i8] }
%"class.Imf_3_4::RgbaInputFile" = type { ptr, ptr, ptr, ptr, %"class.std::__cxx11::basic_string" }
%"class.Imf_3_4::PreviewImage" = type { i32, i32, ptr }
%"struct.Imf_3_4::PreviewRgba" = type { i8, i8, i8, i8 }

; Function Attrs: inlinehint mustprogress nounwind uwtable
define linkonce_odr dso_local noundef nonnull align 1 dereferenceable(4) ptr @_ZNK7Imf_3_412PreviewImage5pixelEjj(ptr noundef nonnull align 8 dereferenceable(16) %0, i32 noundef %1, i32 noundef %2) #10 comdat align 2 {
  %4 = alloca ptr, align 8
  %5 = alloca i32, align 4
  %6 = alloca i32, align 4
  store ptr %0, ptr %4, align 8, !tbaa !205
  store i32 %1, ptr %5, align 4, !tbaa !13
  store i32 %2, ptr %6, align 4, !tbaa !13
  %7 = load ptr, ptr %4, align 8
  %8 = getelementptr inbounds nuw %"class.Imf_3_4::PreviewImage", ptr %7, i32 0, i32 2
  %9 = load ptr, ptr %8, align 8, !tbaa !214
  %10 = load i32, ptr %6, align 4, !tbaa !13
  %11 = getelementptr inbounds nuw %"class.Imf_3_4::PreviewImage", ptr %7, i32 0, i32 0
  %12 = load i32, ptr %11, align 8, !tbaa !213
  %13 = mul i32 %10, %12
  %14 = load i32, ptr %5, align 4, !tbaa !13
  %15 = add i32 %13, %14
  %16 = zext i32 %15 to i64
  %17 = getelementptr inbounds nuw %"struct.Imf_3_4::PreviewRgba", ptr %9, i64 %16
  ret ptr %17
}

; Function Attrs: inlinehint mustprogress nounwind uwtable
define linkonce_odr dso_local noundef i32 @_ZNK7Imf_3_412PreviewImage5widthEv(ptr noundef nonnull align 8 dereferenceable(16) %0) #10 comdat align 2 {
  %2 = alloca ptr, align 8
  store ptr %0, ptr %2, align 8, !tbaa !205
  %3 = load ptr, ptr %2, align 8
  %4 = getelementptr inbounds nuw %"class.Imf_3_4::PreviewImage", ptr %3, i32 0, i32 0
  %5 = load i32, ptr %4, align 8, !tbaa !213
  ret i32 %5
}

; Function Attrs: inlinehint mustprogress nounwind uwtable
define linkonce_odr dso_local noundef i32 @_ZNK7Imf_3_412PreviewImage6heightEv(ptr noundef nonnull align 8 dereferenceable(16) %0) #10 comdat align 2 {
  %2 = alloca ptr, align 8
  store ptr %0, ptr %2, align 8, !tbaa !205
  %3 = load ptr, ptr %2, align 8
  %4 = getelementptr inbounds nuw %"class.Imf_3_4::PreviewImage", ptr %3, i32 0, i32 1
  %5 = load i32, ptr %4, align 4, !tbaa !211
  ret i32 %5
}

; Function Attrs: mustprogress uwtable
define dso_local void @_Z18accessPreviewImagePKc(ptr noundef %0) #6 personality ptr @__gxx_personality_v0 {
  %2 = alloca ptr, align 8
  %3 = alloca %"class.Imf_3_4::RgbaInputFile", align 8
  %4 = alloca ptr, align 8
  %5 = alloca i32, align 4
  %6 = alloca ptr, align 8
  %7 = alloca i32, align 4
  %8 = alloca i32, align 4
  %9 = alloca i32, align 4
  %10 = alloca ptr, align 8
  store ptr %0, ptr %2, align 8, !tbaa !11
  call void @llvm.lifetime.start.p0(i64 64, ptr %3) #3
  %11 = load ptr, ptr %2, align 8, !tbaa !11
  %12 = call noundef i32 @_ZN7Imf_3_417globalThreadCountEv()
  call void @_ZN7Imf_3_413RgbaInputFileC1EPKci(ptr noundef nonnull align 8 dereferenceable(64) %3, ptr noundef %11, i32 noundef %12)
  %13 = invoke noundef nonnull align 8 dereferenceable(49) ptr @_ZNK7Imf_3_413RgbaInputFile6headerEv(ptr noundef nonnull align 8 dereferenceable(64) %3)
          to label %14 unwind label %29

14:                                               ; preds = %1
  %15 = invoke noundef zeroext i1 @_ZNK7Imf_3_46Header15hasPreviewImageEv(ptr noundef nonnull align 8 dereferenceable(49) %13)
          to label %16 unwind label %29

16:                                               ; preds = %14
  br i1 %15, label %17, label %74

17:                                               ; preds = %16
  call void @llvm.lifetime.start.p0(i64 8, ptr %6) #3
  %18 = invoke noundef nonnull align 8 dereferenceable(49) ptr @_ZNK7Imf_3_413RgbaInputFile6headerEv(ptr noundef nonnull align 8 dereferenceable(64) %3)
          to label %19 unwind label %33

19:                                               ; preds = %17
  %20 = invoke noundef nonnull align 8 dereferenceable(16) ptr @_ZNK7Imf_3_46Header12previewImageEv(ptr noundef nonnull align 8 dereferenceable(49) %18)
          to label %21 unwind label %33

21:                                               ; preds = %19
  store ptr %20, ptr %6, align 8, !tbaa !205
  call void @llvm.lifetime.start.p0(i64 4, ptr %7) #3
  store i32 0, ptr %7, align 4, !tbaa !13
  br label %22

22:                                               ; preds = %68, %21
  %23 = load i32, ptr %7, align 4, !tbaa !13
  %24 = load ptr, ptr %6, align 8, !tbaa !205
  %25 = invoke noundef i32 @_ZNK7Imf_3_412PreviewImage6heightEv(ptr noundef nonnull align 8 dereferenceable(16) %24)
          to label %26 unwind label %37

26:                                               ; preds = %22
  %27 = icmp ult i32 %23, %25
  br i1 %27, label %41, label %28

28:                                               ; preds = %26
  store i32 2, ptr %8, align 4
  call void @llvm.lifetime.end.p0(i64 4, ptr %7) #3
  br label %72

29:                                               ; preds = %14, %1
  %30 = landingpad { ptr, i32 }
          cleanup
  %31 = extractvalue { ptr, i32 } %30, 0
  store ptr %31, ptr %4, align 8
  %32 = extractvalue { ptr, i32 } %30, 1
  store i32 %32, ptr %5, align 4
  br label %75

33:                                               ; preds = %19, %17
  %34 = landingpad { ptr, i32 }
          cleanup
  %35 = extractvalue { ptr, i32 } %34, 0
  store ptr %35, ptr %4, align 8
  %36 = extractvalue { ptr, i32 } %34, 1
  store i32 %36, ptr %5, align 4
  br label %73

37:                                               ; preds = %22
  %38 = landingpad { ptr, i32 }
          cleanup
  %39 = extractvalue { ptr, i32 } %38, 0
  store ptr %39, ptr %4, align 8
  %40 = extractvalue { ptr, i32 } %38, 1
  store i32 %40, ptr %5, align 4
  br label %71

41:                                               ; preds = %26
  call void @llvm.lifetime.start.p0(i64 4, ptr %9) #3
  store i32 0, ptr %9, align 4, !tbaa !13
  br label %42

42:                                               ; preds = %59, %41
  %43 = load i32, ptr %9, align 4, !tbaa !13
  %44 = load ptr, ptr %6, align 8, !tbaa !205
  %45 = invoke noundef i32 @_ZNK7Imf_3_412PreviewImage5widthEv(ptr noundef nonnull align 8 dereferenceable(16) %44)
          to label %46 unwind label %49

46:                                               ; preds = %42
  %47 = icmp ult i32 %43, %45
  br i1 %47, label %53, label %48

48:                                               ; preds = %46
  store i32 5, ptr %8, align 4
  call void @llvm.lifetime.end.p0(i64 4, ptr %9) #3
  br label %67

49:                                               ; preds = %42
  %50 = landingpad { ptr, i32 }
          cleanup
  %51 = extractvalue { ptr, i32 } %50, 0
  store ptr %51, ptr %4, align 8
  %52 = extractvalue { ptr, i32 } %50, 1
  store i32 %52, ptr %5, align 4
  br label %66

53:                                               ; preds = %46
  call void @llvm.lifetime.start.p0(i64 8, ptr %10) #3
  %54 = load ptr, ptr %6, align 8, !tbaa !205
  %55 = load i32, ptr %9, align 4, !tbaa !13
  %56 = load i32, ptr %7, align 4, !tbaa !13
  %57 = invoke noundef nonnull align 1 dereferenceable(4) ptr @_ZNK7Imf_3_412PreviewImage5pixelEjj(ptr noundef nonnull align 8 dereferenceable(16) %54, i32 noundef %55, i32 noundef %56)
          to label %58 unwind label %62

58:                                               ; preds = %53
  store ptr %57, ptr %10, align 8, !tbaa !207
  call void @llvm.lifetime.end.p0(i64 8, ptr %10) #3
  br label %59

59:                                               ; preds = %58
  %60 = load i32, ptr %9, align 4, !tbaa !13
  %61 = add nsw i32 %60, 1
  store i32 %61, ptr %9, align 4, !tbaa !13
  br label %42, !llvm.loop !209

62:                                               ; preds = %53
  %63 = landingpad { ptr, i32 }
          cleanup
  %64 = extractvalue { ptr, i32 } %63, 0
  store ptr %64, ptr %4, align 8
  %65 = extractvalue { ptr, i32 } %63, 1
  store i32 %65, ptr %5, align 4
  call void @llvm.lifetime.end.p0(i64 8, ptr %10) #3
  br label %66

66:                                               ; preds = %62, %49
  call void @llvm.lifetime.end.p0(i64 4, ptr %9) #3
  br label %71

67:                                               ; preds = %48
  br label %68

68:                                               ; preds = %67
  %69 = load i32, ptr %7, align 4, !tbaa !13
  %70 = add nsw i32 %69, 1
  store i32 %70, ptr %7, align 4, !tbaa !13
  br label %22, !llvm.loop !210

71:                                               ; preds = %66, %37
  call void @llvm.lifetime.end.p0(i64 4, ptr %7) #3
  br label %73

72:                                               ; preds = %28
  call void @llvm.lifetime.end.p0(i64 8, ptr %6) #3
  br label %74

73:                                               ; preds = %71, %33
  call void @llvm.lifetime.end.p0(i64 8, ptr %6) #3
  br label %75

74:                                               ; preds = %72, %16
  call void @_ZN7Imf_3_413RgbaInputFileD1Ev(ptr noundef nonnull align 8 dereferenceable(64) %3) #3
  call void @llvm.lifetime.end.p0(i64 64, ptr %3) #3
  ret void

75:                                               ; preds = %73, %29
  call void @_ZN7Imf_3_413RgbaInputFileD1Ev(ptr noundef nonnull align 8 dereferenceable(64) %3) #3
  call void @llvm.lifetime.end.p0(i64 64, ptr %3) #3
  br label %76

76:                                               ; preds = %75
  %77 = load ptr, ptr %4, align 8
  %78 = load i32, ptr %5, align 4
  %79 = insertvalue { ptr, i32 } poison, ptr %77, 0
  %80 = insertvalue { ptr, i32 } %79, i32 %78, 1
  resume { ptr, i32 } %80
}