; Function Attrs: mustprogress uwtable
define dso_local void @_Z18accessPreviewImagePKc(ptr noundef %0) local_unnamed_addr #8 personality ptr @__gxx_personality_v0 {
  %2 = alloca %"class.Imf_3_4::RgbaInputFile", align 8
  call void @llvm.lifetime.start.p0(i64 64, ptr nonnull %2) #36
  %3 = tail call noundef i32 @_ZN7Imf_3_417globalThreadCountEv()
  call void @_ZN7Imf_3_413RgbaInputFileC1EPKci(ptr noundef nonnull align 8 dereferenceable(64) %2, ptr noundef %0, i32 noundef %3)
  %4 = invoke noundef nonnull align 8 dereferenceable(49) ptr @_ZNK7Imf_3_413RgbaInputFile6headerEv(ptr noundef nonnull align 8 dereferenceable(64) %2)
          to label %5 unwind label %12

5:                                                ; preds = %1
  %6 = invoke noundef zeroext i1 @_ZNK7Imf_3_46Header15hasPreviewImageEv(ptr noundef nonnull align 8 dereferenceable(49) %4)
          to label %7 unwind label %12

7:                                                ; preds = %5
  br i1 %6, label %8, label %.loopexit

8:                                                ; preds = %7
  %9 = invoke noundef nonnull align 8 dereferenceable(49) ptr @_ZNK7Imf_3_413RgbaInputFile6headerEv(ptr noundef nonnull align 8 dereferenceable(64) %2)
          to label %10 unwind label %14

10:                                               ; preds = %8
  %11 = invoke noundef nonnull align 8 dereferenceable(16) ptr @_ZNK7Imf_3_46Header12previewImageEv(ptr noundef nonnull align 8 dereferenceable(49) %9)
          to label %.loopexit unwind label %14

12:                                               ; preds = %5, %1
  %13 = landingpad { ptr, i32 }
          cleanup
  br label %16

14:                                               ; preds = %10, %8
  %15 = landingpad { ptr, i32 }
          cleanup
  br label %16

.loopexit:                                        ; preds = %10, %7
  call void @_ZN7Imf_3_413RgbaInputFileD1Ev(ptr noundef nonnull align 8 dereferenceable(64) %2) #36
  call void @llvm.lifetime.end.p0(i64 64, ptr nonnull %2) #36
  ret void

16:                                               ; preds = %14, %12
  %.pn = phi { ptr, i32 } [ %15, %14 ], [ %13, %12 ]
  call void @_ZN7Imf_3_413RgbaInputFileD1Ev(ptr noundef nonnull align 8 dereferenceable(64) %2) #36
  call void @llvm.lifetime.end.p0(i64 64, ptr nonnull %2) #36
  resume { ptr, i32 } %.pn
}